; Function Attrs: mustprogress uwtable
define hidden void @_ZN3fmt3v114file5closeEv(ptr noundef nonnull align 4 captures(none) dereferenceable(4) %0) local_unnamed_addr #6 align 2 personality ptr @__gxx_personality_v0 {
  %2 = alloca %"struct.fmt::v11::detail::format_arg_store.99", align 16
  %3 = load i32, ptr %0, align 4, !tbaa !24
  %4 = icmp eq i32 %3, -1
  br i1 %4, label %18, label %5

5:                                                ; preds = %1
  %6 = tail call i32 @close(i32 noundef %3)
  %7 = load i32, ptr @_ZN12_GLOBAL__N_111close_countE, align 4, !tbaa !10
  %.not.i = icmp eq i32 %7, 0
  br i1 %.not.i, label %_ZN4test5closeEi.exit, label %8

8:                                                ; preds = %5
  %9 = add nsw i32 %7, 1
  store i32 %9, ptr @_ZN12_GLOBAL__N_111close_countE, align 4, !tbaa !10
  %.not4.i = icmp eq i32 %7, 3
  br i1 %.not4.i, label %_ZN4test5closeEi.exit, label %_ZN4test5closeEi.exit.thread

_ZN4test5closeEi.exit.thread:                     ; preds = %8
  %10 = tail call ptr @__errno_location() #28
  store i32 4, ptr %10, align 4, !tbaa !10
  store i32 -1, ptr %0, align 4, !tbaa !24
  br label %11

_ZN4test5closeEi.exit:                            ; preds = %5, %8
  store i32 -1, ptr %0, align 4, !tbaa !24
  %.not = icmp eq i32 %6, 0
  br i1 %.not, label %18, label %11

11:                                               ; preds = %_ZN4test5closeEi.exit, %_ZN4test5closeEi.exit.thread
  %12 = tail call ptr @__cxa_allocate_exception(i64 32) #29
  %13 = tail call ptr @__errno_location() #28
  %14 = load i32, ptr %13, align 4, !tbaa !10
  call void @llvm.lifetime.start.p0(i64 16, ptr nonnull %2) #29, !noalias !30
  invoke void @_ZN3fmt3v1113vsystem_errorEiNS0_17basic_string_viewIcEENS0_17basic_format_argsINS0_7contextEEE(ptr dead_on_unwind writable sret(%"class.std::system_error") align 8 %12, i32 noundef %14, ptr nonnull @.str, i64 17, i64 0, ptr nonnull %2)
          to label %15 unwind label %16

15:                                               ; preds = %11
  call void @llvm.lifetime.end.p0(i64 16, ptr nonnull %2) #29, !noalias !30
  call void @__cxa_throw(ptr %12, ptr nonnull @_ZTISt12system_error, ptr nonnull @_ZNSt12system_errorD1Ev) #31
  unreachable

16:                                               ; preds = %11
  %17 = landingpad { ptr, i32 }
          cleanup
  call void @__cxa_free_exception(ptr %12) #29
  resume { ptr, i32 } %17

18:                                               ; preds = %_ZN4test5closeEi.exit, %1
  ret void
}